; Function Attrs: nofree norecurse nosync nounwind memory(argmem: readwrite) uwtable
define internal void @h264_v_loop_filter_chroma_intra_8_c(ptr noundef captures(none) %0, i64 noundef %1, i32 noundef %2, i32 noundef %3) #1 {
  %5 = sub nsw i64 0, %1
  %6 = mul nsw i64 %1, -2
  br label %7

7:                                                ; preds = %4, %43
  %.0.i4 = phi i32 [ 0, %4 ], [ %45, %43 ]
  %.046.i3 = phi ptr [ %0, %4 ], [ %44, %43 ]
  %8 = getelementptr inbounds i8, ptr %.046.i3, i64 %5
  %9 = load i8, ptr %8, align 1, !tbaa !42
  %10 = zext i8 %9 to i32
  %11 = getelementptr inbounds i8, ptr %.046.i3, i64 %6
  %12 = load i8, ptr %11, align 1, !tbaa !42
  %13 = zext i8 %12 to i32
  %14 = load i8, ptr %.046.i3, align 1, !tbaa !42
  %15 = zext i8 %14 to i32
  %16 = getelementptr inbounds i8, ptr %.046.i3, i64 %1
  %17 = load i8, ptr %16, align 1, !tbaa !42
  %18 = zext i8 %17 to i32
  %19 = sub nsw i32 %10, %15
  %20 = tail call i32 @llvm.abs.i32(i32 %19, i1 true)
  %21 = icmp slt i32 %20, %2
  br i1 %21, label %22, label %43

22:                                               ; preds = %7
  %23 = sub nsw i32 %13, %10
  %24 = tail call i32 @llvm.abs.i32(i32 %23, i1 true)
  %25 = icmp slt i32 %24, %3
  br i1 %25, label %26, label %43

26:                                               ; preds = %22
  %27 = sub nsw i32 %18, %15
  %28 = tail call i32 @llvm.abs.i32(i32 %27, i1 true)
  %29 = icmp samesign ult i32 %28, %3
  br i1 %29, label %30, label %43

30:                                               ; preds = %26
  %31 = shl nuw nsw i32 %13, 1
  %32 = add nuw nsw i32 %10, 2
  %33 = add nuw nsw i32 %32, %31
  %34 = add nuw nsw i32 %33, %18
  %35 = lshr i32 %34, 2
  %36 = trunc nuw i32 %35 to i8
  store i8 %36, ptr %8, align 1, !tbaa !42
  %37 = shl nuw nsw i32 %18, 1
  %38 = add nuw nsw i32 %13, 2
  %39 = add nuw nsw i32 %38, %15
  %40 = add nuw nsw i32 %39, %37
  %41 = lshr i32 %40, 2
  %42 = trunc nuw i32 %41 to i8
  store i8 %42, ptr %.046.i3, align 1, !tbaa !42
  br label %43

43:                                               ; preds = %30, %26, %22, %7
  %44 = getelementptr inbounds nuw i8, ptr %.046.i3, i64 1
  %45 = add nuw nsw i32 %.0.i4, 1
  %exitcond.not = icmp eq i32 %45, 8
  br i1 %exitcond.not, label %h264_loop_filter_chroma_intra_8_c.exit, label %7, !llvm.loop !114

h264_loop_filter_chroma_intra_8_c.exit:           ; preds = %43
  ret void
}